; Function Attrs: inlinehint nofree nounwind uwtable
define internal fastcc noalias noundef ptr @gv_calloc(i64 noundef %0, i64 noundef %1) unnamed_addr #9 {
  %3 = icmp ne i64 %0, 0
  br i1 %3, label %4, label %8

4:                                                ; preds = %2
  %mul = tail call { i64, i1 } @llvm.umul.with.overflow.i64(i64 %0, i64 %1)
  %mul.ov = extractvalue { i64, i1 } %mul, 1
  br i1 %mul.ov, label %5, label %8

5:                                                ; preds = %4
  %6 = load ptr, ptr @stderr, align 8, !tbaa !6
  %7 = tail call i32 (ptr, ptr, ...) @fprintf(ptr noundef %6, ptr noundef nonnull @.str.43, i64 noundef %0, i64 noundef %1) #29
  tail call fastcc void @graphviz_exit() #30
  unreachable

8:                                                ; preds = %4, %2
  %9 = tail call noalias ptr @calloc(i64 noundef %0, i64 noundef %1) #28
  %10 = icmp ne i64 %1, 0
  %11 = icmp eq ptr %9, null
  %12 = and i1 %10, %11
  %or.cond3 = and i1 %3, %12
  br i1 %or.cond3, label %13, label %17

13:                                               ; preds = %8
  %14 = load ptr, ptr @stderr, align 8, !tbaa !6
  %15 = mul i64 %1, %0
  %16 = tail call i32 (ptr, ptr, ...) @fprintf(ptr noundef %14, ptr noundef nonnull @.str.41, i64 noundef %15) #29
  tail call fastcc void @graphviz_exit() #30
  unreachable

17:                                               ; preds = %8
  ret ptr %9
}